target datalayout = "e-m:e-p270:32:32-p271:32:32-p272:64:64-i64:64-i128:128-f80:128-n8:16:32:64-S128"
target triple = "x86_64-unknown-linux-gnu"

%class.btVector3 = type { [4 x float] }
%struct.btDbvt = type { ptr, ptr, i32, i32, i32, [4 x i8], %class.btAlignedObjectArray }
%class.btAlignedObjectArray = type <{ %class.btAlignedAllocator, [3 x i8], i32, i32, [4 x i8], ptr, i8, [7 x i8] }>
%class.btAlignedAllocator = type { i8 }
%struct.btDbvtNode = type { %struct.btDbvtAabbMm, ptr, %union.anon.4 }
%struct.btDbvtAabbMm = type { %class.btVector3, %class.btVector3 }
%union.anon.4 = type { [2 x ptr] }
%class.btAlignedObjectArray.0 = type <{ %class.btAlignedAllocator.1, [3 x i8], i32, i32, [4 x i8], ptr, i8, [7 x i8] }>
%class.btAlignedAllocator.1 = type { i8 }

; Function Attrs: mustprogress uwtable
define linkonce_odr dso_local void @_ZN18btAlignedAllocatorIP10btDbvtNodeLj16EE10deallocateEPS1_(ptr noundef nonnull align 1 dereferenceable(1) %this, ptr noundef %ptr) #2 comdat align 2 {
entry:
  %this.addr = alloca ptr, align 8
  %ptr.addr = alloca ptr, align 8
  store ptr %this, ptr %this.addr, align 8
  store ptr %ptr, ptr %ptr.addr, align 8
  %0 = load ptr, ptr %ptr.addr, align 8
  call void @_Z21btAlignedFreeInternalPv(ptr noundef %0)
  ret void
}

; Function Attrs: mustprogress uwtable
define linkonce_odr dso_local noundef ptr @_ZN18btAlignedAllocatorIP10btDbvtNodeLj16EE8allocateEiPPKS1_(ptr noundef nonnull align 1 dereferenceable(1) %this, i32 noundef %n, ptr noundef %hint) #2 comdat align 2 {
entry:
  %this.addr = alloca ptr, align 8
  %n.addr = alloca i32, align 4
  %hint.addr = alloca ptr, align 8
  store ptr %this, ptr %this.addr, align 8
  store i32 %n, ptr %n.addr, align 4
  store ptr %hint, ptr %hint.addr, align 8
  %0 = load i32, ptr %n.addr, align 4
  %conv = sext i32 %0 to i64
  %mul = mul i64 8, %conv
  %call = call noundef ptr @_Z22btAlignedAllocInternalmi(i64 noundef %mul, i32 noundef 16)
  ret ptr %call
}

; Function Attrs: mustprogress uwtable
define linkonce_odr dso_local void @_ZN20btAlignedObjectArrayIP10btDbvtNodeE10deallocateEv(ptr noundef nonnull align 8 dereferenceable(25) %this) #2 comdat align 2 {
entry:
  %this.addr = alloca ptr, align 8
  store ptr %this, ptr %this.addr, align 8
  %this1 = load ptr, ptr %this.addr, align 8
  %m_data = getelementptr inbounds %class.btAlignedObjectArray.0, ptr %this1, i32 0, i32 5
  %0 = load ptr, ptr %m_data, align 8
  %tobool = icmp ne ptr %0, null
  br i1 %tobool, label %if.then, label %if.end6

if.then:                                          ; preds = %entry
  %m_ownsMemory = getelementptr inbounds %class.btAlignedObjectArray.0, ptr %this1, i32 0, i32 6
  %1 = load i8, ptr %m_ownsMemory, align 8
  %tobool2 = trunc i8 %1 to i1
  br i1 %tobool2, label %if.then3, label %if.end

if.then3:                                         ; preds = %if.then
  %m_allocator = getelementptr inbounds %class.btAlignedObjectArray.0, ptr %this1, i32 0, i32 0
  %m_data4 = getelementptr inbounds %class.btAlignedObjectArray.0, ptr %this1, i32 0, i32 5
  %2 = load ptr, ptr %m_data4, align 8
  call void @_ZN18btAlignedAllocatorIP10btDbvtNodeLj16EE10deallocateEPS1_(ptr noundef nonnull align 1 dereferenceable(1) %m_allocator, ptr noundef %2)
  br label %if.end

if.end:                                           ; preds = %if.then3, %if.then
  %m_data5 = getelementptr inbounds %class.btAlignedObjectArray.0, ptr %this1, i32 0, i32 5
  store ptr null, ptr %m_data5, align 8
  br label %if.end6

if.end6:                                          ; preds = %if.end, %entry
  ret void
}

; Function Attrs: mustprogress nounwind uwtable
define linkonce_odr dso_local void @_ZN20btAlignedObjectArrayIP10btDbvtNodeE7destroyEii(ptr noundef nonnull align 8 dereferenceable(25) %this, i32 noundef %first, i32 noundef %last) #1 comdat align 2 {
entry:
  %this.addr = alloca ptr, align 8
  %first.addr = alloca i32, align 4
  %last.addr = alloca i32, align 4
  %i = alloca i32, align 4
  store ptr %this, ptr %this.addr, align 8
  store i32 %first, ptr %first.addr, align 4
  store i32 %last, ptr %last.addr, align 4
  %0 = load i32, ptr %first.addr, align 4
  store i32 %0, ptr %i, align 4
  br label %for.cond

for.cond:                                         ; preds = %for.inc, %entry
  %1 = load i32, ptr %i, align 4
  %2 = load i32, ptr %last.addr, align 4
  %cmp = icmp slt i32 %1, %2
  br i1 %cmp, label %for.body, label %for.end

for.body:                                         ; preds = %for.cond
  br label %for.inc

for.inc:                                          ; preds = %for.body
  %3 = load i32, ptr %i, align 4
  %inc = add nsw i32 %3, 1
  store i32 %inc, ptr %i, align 4
  br label %for.cond, !llvm.loop !31

for.end:                                          ; preds = %for.cond
  ret void
}

; Function Attrs: mustprogress nounwind uwtable
define linkonce_odr dso_local void @_ZNK20btAlignedObjectArrayIP10btDbvtNodeE4copyEiiPS1_(ptr noundef nonnull align 8 dereferenceable(25) %this, i32 noundef %start, i32 noundef %end, ptr noundef %dest) #1 comdat align 2 {
entry:
  %this.addr = alloca ptr, align 8
  %start.addr = alloca i32, align 4
  %end.addr = alloca i32, align 4
  %dest.addr = alloca ptr, align 8
  %i = alloca i32, align 4
  store ptr %this, ptr %this.addr, align 8
  store i32 %start, ptr %start.addr, align 4
  store i32 %end, ptr %end.addr, align 4
  store ptr %dest, ptr %dest.addr, align 8
  %this1 = load ptr, ptr %this.addr, align 8
  %0 = load i32, ptr %start.addr, align 4
  store i32 %0, ptr %i, align 4
  br label %for.cond

for.cond:                                         ; preds = %for.inc, %entry
  %1 = load i32, ptr %i, align 4
  %2 = load i32, ptr %end.addr, align 4
  %cmp = icmp slt i32 %1, %2
  br i1 %cmp, label %for.body, label %for.end

for.body:                                         ; preds = %for.cond
  %3 = load ptr, ptr %dest.addr, align 8
  %4 = load i32, ptr %i, align 4
  %idxprom = sext i32 %4 to i64
  %arrayidx = getelementptr inbounds ptr, ptr %3, i64 %idxprom
  %m_data = getelementptr inbounds %class.btAlignedObjectArray.0, ptr %this1, i32 0, i32 5
  %5 = load ptr, ptr %m_data, align 8
  %6 = load i32, ptr %i, align 4
  %idxprom2 = sext i32 %6 to i64
  %arrayidx3 = getelementptr inbounds ptr, ptr %5, i64 %idxprom2
  %7 = load ptr, ptr %arrayidx3, align 8
  store ptr %7, ptr %arrayidx, align 8
  br label %for.inc

for.inc:                                          ; preds = %for.body
  %8 = load i32, ptr %i, align 4
  %inc = add nsw i32 %8, 1
  store i32 %inc, ptr %i, align 4
  br label %for.cond, !llvm.loop !32

for.end:                                          ; preds = %for.cond
  ret void
}

; Function Attrs: mustprogress uwtable
define linkonce_odr dso_local noundef ptr @_ZN20btAlignedObjectArrayIP10btDbvtNodeE8allocateEi(ptr noundef nonnull align 8 dereferenceable(25) %this, i32 noundef %size) #2 comdat align 2 {
entry:
  %retval = alloca ptr, align 8
  %this.addr = alloca ptr, align 8
  %size.addr = alloca i32, align 4
  store ptr %this, ptr %this.addr, align 8
  store i32 %size, ptr %size.addr, align 4
  %this1 = load ptr, ptr %this.addr, align 8
  %0 = load i32, ptr %size.addr, align 4
  %tobool = icmp ne i32 %0, 0
  br i1 %tobool, label %if.then, label %if.end

if.then:                                          ; preds = %entry
  %m_allocator = getelementptr inbounds %class.btAlignedObjectArray.0, ptr %this1, i32 0, i32 0
  %1 = load i32, ptr %size.addr, align 4
  %call = call noundef ptr @_ZN18btAlignedAllocatorIP10btDbvtNodeLj16EE8allocateEiPPKS1_(ptr noundef nonnull align 1 dereferenceable(1) %m_allocator, i32 noundef %1, ptr noundef null)
  store ptr %call, ptr %retval, align 8
  br label %return

if.end:                                           ; preds = %entry
  store ptr null, ptr %retval, align 8
  br label %return

return:                                           ; preds = %if.end, %if.then
  %2 = load ptr, ptr %retval, align 8
  ret ptr %2
}

; Function Attrs: mustprogress uwtable
define linkonce_odr dso_local void @_ZN20btAlignedObjectArrayIP10btDbvtNodeE7reserveEi(ptr noundef nonnull align 8 dereferenceable(25) %this, i32 noundef %_Count) #2 comdat align 2 {
entry:
  %this.addr = alloca ptr, align 8
  %_Count.addr = alloca i32, align 4
  %s = alloca ptr, align 8
  store ptr %this, ptr %this.addr, align 8
  store i32 %_Count, ptr %_Count.addr, align 4
  %this1 = load ptr, ptr %this.addr, align 8
  %call = call noundef i32 @_ZNK20btAlignedObjectArrayIP10btDbvtNodeE8capacityEv(ptr noundef nonnull align 8 dereferenceable(25) %this1)
  %0 = load i32, ptr %_Count.addr, align 4
  %cmp = icmp slt i32 %call, %0
  br i1 %cmp, label %if.then, label %if.end

if.then:                                          ; preds = %entry
  %1 = load i32, ptr %_Count.addr, align 4
  %call2 = call noundef ptr @_ZN20btAlignedObjectArrayIP10btDbvtNodeE8allocateEi(ptr noundef nonnull align 8 dereferenceable(25) %this1, i32 noundef %1)
  store ptr %call2, ptr %s, align 8
  %call3 = call noundef i32 @_ZNK20btAlignedObjectArrayIP10btDbvtNodeE4sizeEv(ptr noundef nonnull align 8 dereferenceable(25) %this1)
  %2 = load ptr, ptr %s, align 8
  call void @_ZNK20btAlignedObjectArrayIP10btDbvtNodeE4copyEiiPS1_(ptr noundef nonnull align 8 dereferenceable(25) %this1, i32 noundef 0, i32 noundef %call3, ptr noundef %2)
  %call4 = call noundef i32 @_ZNK20btAlignedObjectArrayIP10btDbvtNodeE4sizeEv(ptr noundef nonnull align 8 dereferenceable(25) %this1)
  call void @_ZN20btAlignedObjectArrayIP10btDbvtNodeE7destroyEii(ptr noundef nonnull align 8 dereferenceable(25) %this1, i32 noundef 0, i32 noundef %call4)
  call void @_ZN20btAlignedObjectArrayIP10btDbvtNodeE10deallocateEv(ptr noundef nonnull align 8 dereferenceable(25) %this1)
  %m_ownsMemory = getelementptr inbounds %class.btAlignedObjectArray.0, ptr %this1, i32 0, i32 6
  store i8 1, ptr %m_ownsMemory, align 8
  %3 = load ptr, ptr %s, align 8
  %m_data = getelementptr inbounds %class.btAlignedObjectArray.0, ptr %this1, i32 0, i32 5
  store ptr %3, ptr %m_data, align 8
  %4 = load i32, ptr %_Count.addr, align 4
  %m_capacity = getelementptr inbounds %class.btAlignedObjectArray.0, ptr %this1, i32 0, i32 3
  store i32 %4, ptr %m_capacity, align 8
  br label %if.end

if.end:                                           ; preds = %if.then, %entry
  ret void
}

; Function Attrs: mustprogress nounwind uwtable
define linkonce_odr dso_local noundef i32 @_ZN20btAlignedObjectArrayIP10btDbvtNodeE9allocSizeEi(ptr noundef nonnull align 8 dereferenceable(25) %this, i32 noundef %size) #1 comdat align 2 {
entry:
  %this.addr = alloca ptr, align 8
  %size.addr = alloca i32, align 4
  store ptr %this, ptr %this.addr, align 8
  store i32 %size, ptr %size.addr, align 4
  %0 = load i32, ptr %size.addr, align 4
  %tobool = icmp ne i32 %0, 0
  br i1 %tobool, label %cond.true, label %cond.false

cond.true:                                        ; preds = %entry
  %1 = load i32, ptr %size.addr, align 4
  %mul = mul nsw i32 %1, 2
  br label %cond.end

cond.false:                                       ; preds = %entry
  br label %cond.end

cond.end:                                         ; preds = %cond.false, %cond.true
  %cond = phi i32 [ %mul, %cond.true ], [ 1, %cond.false ]
  ret i32 %cond
}

; Function Attrs: mustprogress nounwind uwtable
define linkonce_odr dso_local noundef i32 @_ZNK20btAlignedObjectArrayIP10btDbvtNodeE8capacityEv(ptr noundef nonnull align 8 dereferenceable(25) %this) #1 comdat align 2 {
entry:
  %this.addr = alloca ptr, align 8
  store ptr %this, ptr %this.addr, align 8
  %this1 = load ptr, ptr %this.addr, align 8
  %m_capacity = getelementptr inbounds %class.btAlignedObjectArray.0, ptr %this1, i32 0, i32 3
  %0 = load i32, ptr %m_capacity, align 8
  ret i32 %0
}

; Function Attrs: mustprogress nounwind uwtable
define linkonce_odr dso_local noundef i32 @_ZNK20btAlignedObjectArrayIP10btDbvtNodeE4sizeEv(ptr noundef nonnull align 8 dereferenceable(25) %this) #1 comdat align 2 {
entry:
  %this.addr = alloca ptr, align 8
  store ptr %this, ptr %this.addr, align 8
  %this1 = load ptr, ptr %this.addr, align 8
  %m_size = getelementptr inbounds %class.btAlignedObjectArray.0, ptr %this1, i32 0, i32 2
  %0 = load i32, ptr %m_size, align 4
  ret i32 %0
}

; Function Attrs: mustprogress nounwind uwtable
define linkonce_odr dso_local noundef zeroext i1 @_ZNK10btDbvtNode6isleafEv(ptr noundef nonnull align 8 dereferenceable(56) %this) #1 comdat align 2 {
entry:
  %this.addr = alloca ptr, align 8
  store ptr %this, ptr %this.addr, align 8
  %this1 = load ptr, ptr %this.addr, align 8
  %0 = getelementptr inbounds %struct.btDbvtNode, ptr %this1, i32 0, i32 2
  %arrayidx = getelementptr inbounds [2 x ptr], ptr %0, i64 0, i64 1
  %1 = load ptr, ptr %arrayidx, align 8
  %cmp = icmp eq ptr %1, null
  ret i1 %cmp
}

; Function Attrs: mustprogress uwtable
define linkonce_odr dso_local void @_ZN20btAlignedObjectArrayIP10btDbvtNodeE9push_backERKS1_(ptr noundef nonnull align 8 dereferenceable(25) %this, ptr noundef nonnull align 8 dereferenceable(8) %_Val) #2 comdat align 2 {
entry:
  %this.addr = alloca ptr, align 8
  %_Val.addr = alloca ptr, align 8
  %sz = alloca i32, align 4
  store ptr %this, ptr %this.addr, align 8
  store ptr %_Val, ptr %_Val.addr, align 8
  %this1 = load ptr, ptr %this.addr, align 8
  %call = call noundef i32 @_ZNK20btAlignedObjectArrayIP10btDbvtNodeE4sizeEv(ptr noundef nonnull align 8 dereferenceable(25) %this1)
  store i32 %call, ptr %sz, align 4
  %0 = load i32, ptr %sz, align 4
  %call2 = call noundef i32 @_ZNK20btAlignedObjectArrayIP10btDbvtNodeE8capacityEv(ptr noundef nonnull align 8 dereferenceable(25) %this1)
  %cmp = icmp eq i32 %0, %call2
  br i1 %cmp, label %if.then, label %if.end

if.then:                                          ; preds = %entry
  %call3 = call noundef i32 @_ZNK20btAlignedObjectArrayIP10btDbvtNodeE4sizeEv(ptr noundef nonnull align 8 dereferenceable(25) %this1)
  %call4 = call noundef i32 @_ZN20btAlignedObjectArrayIP10btDbvtNodeE9allocSizeEi(ptr noundef nonnull align 8 dereferenceable(25) %this1, i32 noundef %call3)
  call void @_ZN20btAlignedObjectArrayIP10btDbvtNodeE7reserveEi(ptr noundef nonnull align 8 dereferenceable(25) %this1, i32 noundef %call4)
  br label %if.end

if.end:                                           ; preds = %if.then, %entry
  %m_data = getelementptr inbounds %class.btAlignedObjectArray.0, ptr %this1, i32 0, i32 5
  %1 = load ptr, ptr %m_data, align 8
  %m_size = getelementptr inbounds %class.btAlignedObjectArray.0, ptr %this1, i32 0, i32 2
  %2 = load i32, ptr %m_size, align 4
  %idxprom = sext i32 %2 to i64
  %arrayidx = getelementptr inbounds ptr, ptr %1, i64 %idxprom
  %3 = load ptr, ptr %_Val.addr, align 8
  %4 = load ptr, ptr %3, align 8
  store ptr %4, ptr %arrayidx, align 8
  %m_size5 = getelementptr inbounds %class.btAlignedObjectArray.0, ptr %this1, i32 0, i32 2
  %5 = load i32, ptr %m_size5, align 4
  %inc = add nsw i32 %5, 1
  store i32 %inc, ptr %m_size5, align 4
  ret void
}

; Function Attrs: mustprogress uwtable
define internal void @_ZL10deletenodeP6btDbvtP10btDbvtNode(ptr noundef %pdbvt, ptr noundef %node) #2 {
entry:
  %pdbvt.addr = alloca ptr, align 8
  %node.addr = alloca ptr, align 8
  store ptr %pdbvt, ptr %pdbvt.addr, align 8
  store ptr %node, ptr %node.addr, align 8
  %0 = load ptr, ptr %pdbvt.addr, align 8
  %m_free = getelementptr inbounds %struct.btDbvt, ptr %0, i32 0, i32 1
  %1 = load ptr, ptr %m_free, align 8
  call void @_Z21btAlignedFreeInternalPv(ptr noundef %1)
  %2 = load ptr, ptr %node.addr, align 8
  %3 = load ptr, ptr %pdbvt.addr, align 8
  %m_free1 = getelementptr inbounds %struct.btDbvt, ptr %3, i32 0, i32 1
  store ptr %2, ptr %m_free1, align 8
  ret void
}

; Function Attrs: mustprogress nounwind uwtable
define linkonce_odr dso_local noundef zeroext i1 @_ZNK10btDbvtNode10isinternalEv(ptr noundef nonnull align 8 dereferenceable(56) %this) #1 comdat align 2 {
entry:
  %this.addr = alloca ptr, align 8
  store ptr %this, ptr %this.addr, align 8
  %this1 = load ptr, ptr %this.addr, align 8
  %call = call noundef zeroext i1 @_ZNK10btDbvtNode6isleafEv(ptr noundef nonnull align 8 dereferenceable(56) %this1)
  %lnot = xor i1 %call, true
  ret i1 %lnot
}

; Function Attrs: mustprogress uwtable
define internal void @_ZL11fetchleavesP6btDbvtP10btDbvtNodeR20btAlignedObjectArrayIS2_Ei(ptr noundef %pdbvt, ptr noundef %root, ptr noundef nonnull align 8 dereferenceable(25) %leaves, i32 noundef %depth) #2 {
entry:
  %pdbvt.addr = alloca ptr, align 8
  %root.addr = alloca ptr, align 8
  %leaves.addr = alloca ptr, align 8
  %depth.addr = alloca i32, align 4
  store ptr %pdbvt, ptr %pdbvt.addr, align 8
  store ptr %root, ptr %root.addr, align 8
  store ptr %leaves, ptr %leaves.addr, align 8
  store i32 %depth, ptr %depth.addr, align 4
  %0 = load ptr, ptr %root.addr, align 8
  %call = call noundef zeroext i1 @_ZNK10btDbvtNode10isinternalEv(ptr noundef nonnull align 8 dereferenceable(56) %0)
  br i1 %call, label %land.lhs.true, label %if.else

land.lhs.true:                                    ; preds = %entry
  %1 = load i32, ptr %depth.addr, align 4
  %tobool = icmp ne i32 %1, 0
  br i1 %tobool, label %if.then, label %if.else

if.then:                                          ; preds = %land.lhs.true
  %2 = load ptr, ptr %pdbvt.addr, align 8
  %3 = load ptr, ptr %root.addr, align 8
  %4 = getelementptr inbounds %struct.btDbvtNode, ptr %3, i32 0, i32 2
  %arrayidx = getelementptr inbounds [2 x ptr], ptr %4, i64 0, i64 0
  %5 = load ptr, ptr %arrayidx, align 8
  %6 = load ptr, ptr %leaves.addr, align 8
  %7 = load i32, ptr %depth.addr, align 4
  %sub = sub nsw i32 %7, 1
  call void @_ZL11fetchleavesP6btDbvtP10btDbvtNodeR20btAlignedObjectArrayIS2_Ei(ptr noundef %2, ptr noundef %5, ptr noundef nonnull align 8 dereferenceable(25) %6, i32 noundef %sub)
  %8 = load ptr, ptr %pdbvt.addr, align 8
  %9 = load ptr, ptr %root.addr, align 8
  %10 = getelementptr inbounds %struct.btDbvtNode, ptr %9, i32 0, i32 2
  %arrayidx1 = getelementptr inbounds [2 x ptr], ptr %10, i64 0, i64 1
  %11 = load ptr, ptr %arrayidx1, align 8
  %12 = load ptr, ptr %leaves.addr, align 8
  %13 = load i32, ptr %depth.addr, align 4
  %sub2 = sub nsw i32 %13, 1
  call void @_ZL11fetchleavesP6btDbvtP10btDbvtNodeR20btAlignedObjectArrayIS2_Ei(ptr noundef %8, ptr noundef %11, ptr noundef nonnull align 8 dereferenceable(25) %12, i32 noundef %sub2)
  %14 = load ptr, ptr %pdbvt.addr, align 8
  %15 = load ptr, ptr %root.addr, align 8
  call void @_ZL10deletenodeP6btDbvtP10btDbvtNode(ptr noundef %14, ptr noundef %15)
  br label %if.end

if.else:                                          ; preds = %land.lhs.true, %entry
  %16 = load ptr, ptr %leaves.addr, align 8
  call void @_ZN20btAlignedObjectArrayIP10btDbvtNodeE9push_backERKS1_(ptr noundef nonnull align 8 dereferenceable(25) %16, ptr noundef nonnull align 8 dereferenceable(8) %root.addr)
  br label %if.end

if.end:                                           ; preds = %if.else, %if.then
  ret void
}