; Function Attrs: mustprogress uwtable
define internal fastcc void @_ZL11fetchleavesP6btDbvtP10btDbvtNodeR20btAlignedObjectArrayIS2_Ei(ptr noundef %pdbvt, ptr noundef %root, ptr noundef nonnull align 8 dereferenceable(25) %leaves, i32 noundef %depth) unnamed_addr #2 {
entry:
  %arrayidx.i.i = getelementptr inbounds i8, ptr %root, i64 48
  %0 = load ptr, ptr %arrayidx.i.i, align 8
  %cmp.i.i = icmp ne ptr %0, null
  %tobool = icmp ne i32 %depth, 0
  %or.cond = and i1 %tobool, %cmp.i.i
  br i1 %or.cond, label %if.then, label %if.else

common.ret11:                                     ; preds = %if.then, %_ZN20btAlignedObjectArrayIP10btDbvtNodeE9push_backERKS1_.exit
  ret void

if.then:                                          ; preds = %entry
  %1 = getelementptr inbounds i8, ptr %root, i64 40
  %2 = load ptr, ptr %1, align 8
  %sub = add nsw i32 %depth, -1
  tail call fastcc void @_ZL11fetchleavesP6btDbvtP10btDbvtNodeR20btAlignedObjectArrayIS2_Ei(ptr noundef %pdbvt, ptr noundef %2, ptr noundef nonnull align 8 dereferenceable(25) %leaves, i32 noundef %sub)
  %3 = load ptr, ptr %arrayidx.i.i, align 8
  tail call fastcc void @_ZL11fetchleavesP6btDbvtP10btDbvtNodeR20btAlignedObjectArrayIS2_Ei(ptr noundef %pdbvt, ptr noundef %3, ptr noundef nonnull align 8 dereferenceable(25) %leaves, i32 noundef %sub)
  %m_free.i = getelementptr inbounds i8, ptr %pdbvt, i64 8
  %4 = load ptr, ptr %m_free.i, align 8
  tail call void @_Z21btAlignedFreeInternalPv(ptr noundef %4)
  store ptr %root, ptr %m_free.i, align 8
  br label %common.ret11

if.else:                                          ; preds = %entry
  %m_size.i.i = getelementptr inbounds i8, ptr %leaves, i64 4
  %5 = load i32, ptr %m_size.i.i, align 4
  %m_capacity.i.i = getelementptr inbounds i8, ptr %leaves, i64 8
  %6 = load i32, ptr %m_capacity.i.i, align 8
  %cmp.i = icmp eq i32 %5, %6
  br i1 %cmp.i, label %if.then.i, label %_ZN20btAlignedObjectArrayIP10btDbvtNodeE9push_backERKS1_.exit

if.then.i:                                        ; preds = %if.else
  %tobool.not.i.i = icmp eq i32 %5, 0
  %mul.i.i = shl nsw i32 %5, 1
  %cond.i.i = select i1 %tobool.not.i.i, i32 1, i32 %mul.i.i
  %cmp.i.i7 = icmp slt i32 %5, %cond.i.i
  br i1 %cmp.i.i7, label %if.then.i.i, label %_ZN20btAlignedObjectArrayIP10btDbvtNodeE9push_backERKS1_.exit

if.then.i.i:                                      ; preds = %if.then.i
  %tobool.not.i.i.i = icmp eq i32 %cond.i.i, 0
  br i1 %tobool.not.i.i.i, label %_ZN20btAlignedObjectArrayIP10btDbvtNodeE8allocateEi.exit.i.i, label %if.then.i.i.i

if.then.i.i.i:                                    ; preds = %if.then.i.i
  %conv.i.i.i.i = sext i32 %cond.i.i to i64
  %mul.i.i.i.i = shl nsw i64 %conv.i.i.i.i, 3
  %call.i.i.i.i = tail call noundef ptr @_Z22btAlignedAllocInternalmi(i64 noundef %mul.i.i.i.i, i32 noundef 16)
  %.pre.i = load i32, ptr %m_size.i.i, align 4
  br label %_ZN20btAlignedObjectArrayIP10btDbvtNodeE8allocateEi.exit.i.i

_ZN20btAlignedObjectArrayIP10btDbvtNodeE8allocateEi.exit.i.i: ; preds = %if.then.i.i.i, %if.then.i.i
  %7 = phi i32 [ %.pre.i, %if.then.i.i.i ], [ %5, %if.then.i.i ]
  %retval.0.i.i.i = phi ptr [ %call.i.i.i.i, %if.then.i.i.i ], [ null, %if.then.i.i ]
  %cmp4.i.i.i = icmp sgt i32 %7, 0
  br i1 %cmp4.i.i.i, label %for.body.lr.ph.i.i.i, label %_ZNK20btAlignedObjectArrayIP10btDbvtNodeE4copyEiiPS1_.exit.i.i

for.body.lr.ph.i.i.i:                             ; preds = %_ZN20btAlignedObjectArrayIP10btDbvtNodeE8allocateEi.exit.i.i
  %m_data.i.i.i = getelementptr inbounds i8, ptr %leaves, i64 16
  %wide.trip.count.i.i.i = zext nneg i32 %7 to i64
  br label %for.body.i.i.i

for.body.i.i.i:                                   ; preds = %for.body.i.i.i, %for.body.lr.ph.i.i.i
  %indvars.iv.i.i.i = phi i64 [ 0, %for.body.lr.ph.i.i.i ], [ %indvars.iv.next.i.i.i, %for.body.i.i.i ]
  %arrayidx.i.i.i = getelementptr inbounds ptr, ptr %retval.0.i.i.i, i64 %indvars.iv.i.i.i
  %8 = load ptr, ptr %m_data.i.i.i, align 8
  %arrayidx3.i.i.i = getelementptr inbounds ptr, ptr %8, i64 %indvars.iv.i.i.i
  %9 = load ptr, ptr %arrayidx3.i.i.i, align 8
  store ptr %9, ptr %arrayidx.i.i.i, align 8
  %indvars.iv.next.i.i.i = add nuw nsw i64 %indvars.iv.i.i.i, 1
  %exitcond.not.i.i.i = icmp eq i64 %indvars.iv.next.i.i.i, %wide.trip.count.i.i.i
  br i1 %exitcond.not.i.i.i, label %_ZNK20btAlignedObjectArrayIP10btDbvtNodeE4copyEiiPS1_.exit.i.i, label %for.body.i.i.i, !llvm.loop !5

_ZNK20btAlignedObjectArrayIP10btDbvtNodeE4copyEiiPS1_.exit.i.i: ; preds = %for.body.i.i.i, %_ZN20btAlignedObjectArrayIP10btDbvtNodeE8allocateEi.exit.i.i
  %m_data.i5.i.i = getelementptr inbounds i8, ptr %leaves, i64 16
  %10 = load ptr, ptr %m_data.i5.i.i, align 8
  %tobool.not.i6.i.i = icmp eq ptr %10, null
  br i1 %tobool.not.i6.i.i, label %_ZN20btAlignedObjectArrayIP10btDbvtNodeE10deallocateEv.exit.i.i, label %if.then.i7.i.i

if.then.i7.i.i:                                   ; preds = %_ZNK20btAlignedObjectArrayIP10btDbvtNodeE4copyEiiPS1_.exit.i.i
  %m_ownsMemory.i.i.i = getelementptr inbounds i8, ptr %leaves, i64 24
  %11 = load i8, ptr %m_ownsMemory.i.i.i, align 8
  %12 = and i8 %11, 1
  %tobool2.not.i.i.i = icmp eq i8 %12, 0
  br i1 %tobool2.not.i.i.i, label %_ZN20btAlignedObjectArrayIP10btDbvtNodeE10deallocateEv.exit.i.i, label %if.then3.i.i.i

if.then3.i.i.i:                                   ; preds = %if.then.i7.i.i
  tail call void @_Z21btAlignedFreeInternalPv(ptr noundef nonnull %10)
  br label %_ZN20btAlignedObjectArrayIP10btDbvtNodeE10deallocateEv.exit.i.i

_ZN20btAlignedObjectArrayIP10btDbvtNodeE10deallocateEv.exit.i.i: ; preds = %if.then3.i.i.i, %if.then.i7.i.i, %_ZNK20btAlignedObjectArrayIP10btDbvtNodeE4copyEiiPS1_.exit.i.i
  %m_ownsMemory.i.i = getelementptr inbounds i8, ptr %leaves, i64 24
  store i8 1, ptr %m_ownsMemory.i.i, align 8
  store ptr %retval.0.i.i.i, ptr %m_data.i5.i.i, align 8
  store i32 %cond.i.i, ptr %m_capacity.i.i, align 8
  %.pre2.i = load i32, ptr %m_size.i.i, align 4
  br label %_ZN20btAlignedObjectArrayIP10btDbvtNodeE9push_backERKS1_.exit

_ZN20btAlignedObjectArrayIP10btDbvtNodeE9push_backERKS1_.exit: ; preds = %if.else, %if.then.i, %_ZN20btAlignedObjectArrayIP10btDbvtNodeE10deallocateEv.exit.i.i
  %13 = phi i32 [ %.pre2.i, %_ZN20btAlignedObjectArrayIP10btDbvtNodeE10deallocateEv.exit.i.i ], [ %5, %if.then.i ], [ %5, %if.else ]
  %m_data.i = getelementptr inbounds i8, ptr %leaves, i64 16
  %14 = load ptr, ptr %m_data.i, align 8
  %idxprom.i = sext i32 %13 to i64
  %arrayidx.i = getelementptr inbounds ptr, ptr %14, i64 %idxprom.i
  store ptr %root, ptr %arrayidx.i, align 8
  %15 = load i32, ptr %m_size.i.i, align 4
  %inc.i = add nsw i32 %15, 1
  store i32 %inc.i, ptr %m_size.i.i, align 4
  br label %common.ret11
}